; ModuleID = '2/1350.c'
source_filename = "2/1350.c"
target datalayout = "e-m:e-p270:32:32-p271:32:32-p272:64:64-i64:64-f80:128-n8:16:32:64-S128"
target triple = "x86_64-pc-linux-gnu"

%struct.book = type { i32, [26 x i8] }

@.str = private unnamed_addr constant [3 x i8] c"%d\00", align 1
@.str.1 = private unnamed_addr constant [5 x i8] c"%d%s\00", align 1
@book1 = common dso_local global [999 x %struct.book] zeroinitializer, align 16
@.str.2 = private unnamed_addr constant [7 x i8] c"%c\0A%d\0A\00", align 1
@.str.3 = private unnamed_addr constant [4 x i8] c"%d\0A\00", align 1

; Function Attrs: noinline nounwind uwtable
define dso_local i32 @main() #0 {
  %1 = alloca i32, align 4
  %2 = alloca i32, align 4
  %3 = alloca i32, align 4
  %4 = alloca i32, align 4
  %5 = alloca i32, align 4
  %6 = alloca [26 x i32], align 16
  %7 = alloca i32, align 4
  %8 = alloca i32, align 4
  %9 = alloca i32, align 4
  %10 = alloca i8, align 1
  store i32 0, i32* %1, align 4
  store i32 0, i32* %5, align 4
  %11 = bitcast [26 x i32]* %6 to i8*
  call void @llvm.memset.p0i8.i64(i8* align 16 %11, i8 0, i64 104, i1 false)
  store i32 0, i32* %8, align 4
  %12 = call i32 (i8*, ...) @__isoc99_scanf(i8* getelementptr inbounds ([3 x i8], [3 x i8]* @.str, i64 0, i64 0), i32* %2)
  store i32 0, i32* %3, align 4
  br label %13

13:                                               ; preds = %27, %0
  %14 = load i32, i32* %3, align 4
  %15 = load i32, i32* %2, align 4
  %16 = icmp slt i32 %14, %15
  br i1 %16, label %17, label %30

17:                                               ; preds = %13
  %18 = load i32, i32* %3, align 4
  %19 = sext i32 %18 to i64
  %20 = getelementptr inbounds [999 x %struct.book], [999 x %struct.book]* @book1, i64 0, i64 %19
  %21 = getelementptr inbounds %struct.book, %struct.book* %20, i32 0, i32 0
  %22 = load i32, i32* %3, align 4
  %23 = sext i32 %22 to i64
  %24 = getelementptr inbounds [999 x %struct.book], [999 x %struct.book]* @book1, i64 0, i64 %23
  %25 = getelementptr inbounds %struct.book, %struct.book* %24, i32 0, i32 1
  %26 = call i32 (i8*, ...) @__isoc99_scanf(i8* getelementptr inbounds ([5 x i8], [5 x i8]* @.str.1, i64 0, i64 0), i32* %21, [26 x i8]* %25)
  br label %27

27:                                               ; preds = %17
  %28 = load i32, i32* %3, align 4
  %29 = add nsw i32 %28, 1
  store i32 %29, i32* %3, align 4
  br label %13

30:                                               ; preds = %13
  store i32 0, i32* %3, align 4
  br label %31

31:                                               ; preds = %66, %30
  %32 = load i32, i32* %3, align 4
  %33 = load i32, i32* %2, align 4
  %34 = icmp slt i32 %32, %33
  br i1 %34, label %35, label %69

35:                                               ; preds = %31
  %36 = load i32, i32* %3, align 4
  %37 = sext i32 %36 to i64
  %38 = getelementptr inbounds [999 x %struct.book], [999 x %struct.book]* @book1, i64 0, i64 %37
  %39 = getelementptr inbounds %struct.book, %struct.book* %38, i32 0, i32 1
  %40 = getelementptr inbounds [26 x i8], [26 x i8]* %39, i64 0, i64 0
  %41 = call i64 @strlen(i8* %40) #4
  %42 = trunc i64 %41 to i32
  store i32 %42, i32* %7, align 4
  store i32 0, i32* %4, align 4
  br label %43

43:                                               ; preds = %62, %35
  %44 = load i32, i32* %4, align 4
  %45 = load i32, i32* %7, align 4
  %46 = icmp slt i32 %44, %45
  br i1 %46, label %47, label %65

47:                                               ; preds = %43
  %48 = load i32, i32* %3, align 4
  %49 = sext i32 %48 to i64
  %50 = getelementptr inbounds [999 x %struct.book], [999 x %struct.book]* @book1, i64 0, i64 %49
  %51 = getelementptr inbounds %struct.book, %struct.book* %50, i32 0, i32 1
  %52 = load i32, i32* %4, align 4
  %53 = sext i32 %52 to i64
  %54 = getelementptr inbounds [26 x i8], [26 x i8]* %51, i64 0, i64 %53
  %55 = load i8, i8* %54, align 1
  %56 = sext i8 %55 to i32
  %57 = sub nsw i32 %56, 65
  %58 = sext i32 %57 to i64
  %59 = getelementptr inbounds [26 x i32], [26 x i32]* %6, i64 0, i64 %58
  %60 = load i32, i32* %59, align 4
  %61 = add nsw i32 %60, 1
  store i32 %61, i32* %59, align 4
  br label %62

62:                                               ; preds = %47
  %63 = load i32, i32* %4, align 4
  %64 = add nsw i32 %63, 1
  store i32 %64, i32* %4, align 4
  br label %43

65:                                               ; preds = %43
  br label %66

66:                                               ; preds = %65
  %67 = load i32, i32* %3, align 4
  %68 = add nsw i32 %67, 1
  store i32 %68, i32* %3, align 4
  br label %31

69:                                               ; preds = %31
  store i32 0, i32* %3, align 4
  br label %70

70:                                               ; preds = %90, %69
  %71 = load i32, i32* %3, align 4
  %72 = icmp slt i32 %71, 26
  br i1 %72, label %73, label %93

73:                                               ; preds = %70
  %74 = load i32, i32* %3, align 4
  %75 = sext i32 %74 to i64
  %76 = getelementptr inbounds [26 x i32], [26 x i32]* %6, i64 0, i64 %75
  %77 = load i32, i32* %76, align 4
  %78 = load i32, i32* %8, align 4
  %79 = icmp sgt i32 %77, %78
  br i1 %79, label %80, label %89

80:                                               ; preds = %73
  %81 = load i32, i32* %3, align 4
  %82 = sext i32 %81 to i64
  %83 = getelementptr inbounds [26 x i32], [26 x i32]* %6, i64 0, i64 %82
  %84 = load i32, i32* %83, align 4
  store i32 %84, i32* %8, align 4
  %85 = load i32, i32* %3, align 4
  store i32 %85, i32* %9, align 4
  %86 = load i32, i32* %3, align 4
  %87 = add nsw i32 %86, 65
  %88 = trunc i32 %87 to i8
  store i8 %88, i8* %10, align 1
  br label %89

89:                                               ; preds = %80, %73
  br label %90

90:                                               ; preds = %89
  %91 = load i32, i32* %3, align 4
  %92 = add nsw i32 %91, 1
  store i32 %92, i32* %3, align 4
  br label %70

93:                                               ; preds = %70
  %94 = load i8, i8* %10, align 1
  %95 = sext i8 %94 to i32
  %96 = load i32, i32* %9, align 4
  %97 = sext i32 %96 to i64
  %98 = getelementptr inbounds [26 x i32], [26 x i32]* %6, i64 0, i64 %97
  %99 = load i32, i32* %98, align 4
  %100 = call i32 (i8*, ...) @printf(i8* getelementptr inbounds ([7 x i8], [7 x i8]* @.str.2, i64 0, i64 0), i32 %95, i32 %99)
  store i32 0, i32* %3, align 4
  br label %101

101:                                              ; preds = %142, %93
  %102 = load i32, i32* %3, align 4
  %103 = load i32, i32* %2, align 4
  %104 = icmp slt i32 %102, %103
  br i1 %104, label %105, label %145

105:                                              ; preds = %101
  %106 = load i32, i32* %3, align 4
  %107 = sext i32 %106 to i64
  %108 = getelementptr inbounds [999 x %struct.book], [999 x %struct.book]* @book1, i64 0, i64 %107
  %109 = getelementptr inbounds %struct.book, %struct.book* %108, i32 0, i32 1
  %110 = getelementptr inbounds [26 x i8], [26 x i8]* %109, i64 0, i64 0
  %111 = call i64 @strlen(i8* %110) #4
  %112 = trunc i64 %111 to i32
  store i32 %112, i32* %7, align 4
  store i32 0, i32* %4, align 4
  br label %113

113:                                              ; preds = %138, %105
  %114 = load i32, i32* %4, align 4
  %115 = load i32, i32* %7, align 4
  %116 = icmp slt i32 %114, %115
  br i1 %116, label %117, label %141

117:                                              ; preds = %113
  %118 = load i32, i32* %3, align 4
  %119 = sext i32 %118 to i64
  %120 = getelementptr inbounds [999 x %struct.book], [999 x %struct.book]* @book1, i64 0, i64 %119
  %121 = getelementptr inbounds %struct.book, %struct.book* %120, i32 0, i32 1
  %122 = load i32, i32* %4, align 4
  %123 = sext i32 %122 to i64
  %124 = getelementptr inbounds [26 x i8], [26 x i8]* %121, i64 0, i64 %123
  %125 = load i8, i8* %124, align 1
  %126 = sext i8 %125 to i32
  %127 = load i8, i8* %10, align 1
  %128 = sext i8 %127 to i32
  %129 = icmp eq i32 %126, %128
  br i1 %129, label %130, label %137

130:                                              ; preds = %117
  %131 = load i32, i32* %3, align 4
  %132 = sext i32 %131 to i64
  %133 = getelementptr inbounds [999 x %struct.book], [999 x %struct.book]* @book1, i64 0, i64 %132
  %134 = getelementptr inbounds %struct.book, %struct.book* %133, i32 0, i32 0
  %135 = load i32, i32* %134, align 16
  %136 = call i32 (i8*, ...) @printf(i8* getelementptr inbounds ([4 x i8], [4 x i8]* @.str.3, i64 0, i64 0), i32 %135)
  br label %137

137:                                              ; preds = %130, %117
  br label %138

138:                                              ; preds = %137
  %139 = load i32, i32* %4, align 4
  %140 = add nsw i32 %139, 1
  store i32 %140, i32* %4, align 4
  br label %113

141:                                              ; preds = %113
  br label %142

142:                                              ; preds = %141
  %143 = load i32, i32* %3, align 4
  %144 = add nsw i32 %143, 1
  store i32 %144, i32* %3, align 4
  br label %101

145:                                              ; preds = %101
  ret i32 0
}

; Function Attrs: argmemonly nounwind willreturn
declare void @llvm.memset.p0i8.i64(i8* nocapture writeonly, i8, i64, i1 immarg) #1

declare dso_local i32 @__isoc99_scanf(i8*, ...) #2

; Function Attrs: nounwind readonly
declare dso_local i64 @strlen(i8*) #3

declare dso_local i32 @printf(i8*, ...) #2


!llvm.module.flags = !{!0}
!llvm.ident = !{!1}

!0 = !{i32 1, !"wchar_size", i32 4}
!1 = !{!"clang version 10.0.0-4ubuntu1 "}
